target datalayout = "e-m:e-p270:32:32-p271:32:32-p272:64:64-i64:64-i128:128-f80:128-n8:16:32:64-S128"
target triple = "x86_64-pc-linux-gnu"

%class.ciEnv = type <{ ptr, %class.Arena, ptr, ptr, ptr, ptr, %class.CHeapStringHolder, i8, [3 x i8], i32, i8, [3 x i8], i32, ptr, ptr, ptr, ptr, i32, [4 x i8], i64, i8, i8, i8, i8, i8, i8, i8, i8, ptr, ptr, ptr, ptr, ptr, ptr, ptr, ptr, ptr, [1025 x i8], [7 x i8] }>
%class.Arena = type { i8, i8, i64, ptr, ptr, ptr, ptr }
%class.CHeapStringHolder = type { ptr }

@_ZN5ciEnv38_ArrayIndexOutOfBoundsException_handleE = hidden global ptr null, align 8
@_ZN6Symbol11_vm_symbolsE = external global [0 x ptr], align 8

; Function Attrs: mustprogress nounwind uwtable
define linkonce_odr hidden noundef ptr @_ZN9vmSymbols40java_lang_ArrayIndexOutOfBoundsExceptionEv() #1 comdat align 2 {
  %1 = load ptr, ptr getelementptr inbounds ([0 x ptr], ptr @_ZN6Symbol11_vm_symbolsE, i64 0, i64 132), align 8
  ret ptr %1
}

; Function Attrs: mustprogress nounwind uwtable
define hidden noundef ptr @_ZN5ciEnv39ArrayIndexOutOfBoundsException_instanceEv(ptr noundef nonnull align 8 dereferenceable(1265) %0) #1 align 2 {
  %2 = alloca ptr, align 8
  store ptr %0, ptr %2, align 8
  %3 = load ptr, ptr %2, align 8
  %4 = getelementptr inbounds %class.ciEnv, ptr %3, i32 0, i32 30
  %5 = load ptr, ptr %4, align 8
  %6 = icmp eq ptr %5, null
  br i1 %6, label %7, label %11

7:                                                ; preds = %1
  %8 = call noundef ptr @_ZN9vmSymbols40java_lang_ArrayIndexOutOfBoundsExceptionEv()
  %9 = call noundef ptr @_ZN5ciEnv23get_or_create_exceptionERP8_jobjectP6Symbol(ptr noundef nonnull align 8 dereferenceable(1265) %3, ptr noundef nonnull align 8 dereferenceable(8) @_ZN5ciEnv38_ArrayIndexOutOfBoundsException_handleE, ptr noundef %8)
  %10 = getelementptr inbounds %class.ciEnv, ptr %3, i32 0, i32 30
  store ptr %9, ptr %10, align 8
  br label %11

11:                                               ; preds = %7, %1
  %12 = getelementptr inbounds %class.ciEnv, ptr %3, i32 0, i32 30
  %13 = load ptr, ptr %12, align 8
  ret ptr %13
}