; Function Attrs: mustprogress nounwind uwtable
define hidden noundef ptr @_ZN5ciEnv39ArrayIndexOutOfBoundsException_instanceEv(ptr nocapture noundef nonnull align 8 dereferenceable(1265) %0) local_unnamed_addr #0 align 2 {
  %2 = getelementptr inbounds i8, ptr %0, i64 184
  %3 = load ptr, ptr %2, align 8
  %4 = icmp eq ptr %3, null
  br i1 %4, label %5, label %8

5:                                                ; preds = %1
  %6 = load ptr, ptr getelementptr inbounds (i8, ptr @_ZN6Symbol11_vm_symbolsE, i64 1056), align 8
  %7 = tail call noundef ptr @_ZN5ciEnv23get_or_create_exceptionERP8_jobjectP6Symbol(ptr noundef nonnull align 8 dereferenceable(1265) %0, ptr noundef nonnull align 8 dereferenceable(8) @_ZN5ciEnv38_ArrayIndexOutOfBoundsException_handleE, ptr noundef %6)
  store ptr %7, ptr %2, align 8
  br label %8

8:                                                ; preds = %5, %1
  %9 = phi ptr [ %7, %5 ], [ %3, %1 ]
  ret ptr %9
}